target datalayout = "e-m:e-p270:32:32-p271:32:32-p272:64:64-i64:64-i128:128-f80:128-n8:16:32:64-S128"
target triple = "x86_64-pc-linux-gnu"

; Function Attrs: mustprogress nounwind uwtable
define linkonce_odr hidden noundef ptr @_ZNSt11__copy_moveILb0ELb1ESt26random_access_iterator_tagE8__copy_mIdEEPT_PKS3_S6_S4_(ptr noundef %0, ptr noundef %1, ptr noundef %2) #1 comdat align 2 {
  %4 = alloca ptr, align 8
  %5 = alloca ptr, align 8
  %6 = alloca ptr, align 8
  %7 = alloca i64, align 8
  store ptr %0, ptr %4, align 8
  store ptr %1, ptr %5, align 8
  store ptr %2, ptr %6, align 8
  %8 = load ptr, ptr %5, align 8
  %9 = load ptr, ptr %4, align 8
  %10 = ptrtoint ptr %8 to i64
  %11 = ptrtoint ptr %9 to i64
  %12 = sub i64 %10, %11
  %13 = sdiv exact i64 %12, 8
  store i64 %13, ptr %7, align 8
  %14 = load i64, ptr %7, align 8
  %15 = icmp ne i64 %14, 0
  br i1 %15, label %16, label %21

16:                                               ; preds = %3
  %17 = load ptr, ptr %6, align 8
  %18 = load ptr, ptr %4, align 8
  %19 = load i64, ptr %7, align 8
  %20 = mul i64 8, %19
  call void @llvm.memmove.p0.p0.i64(ptr align 8 %17, ptr align 8 %18, i64 %20, i1 false)
  br label %21

21:                                               ; preds = %16, %3
  %22 = load ptr, ptr %6, align 8
  %23 = load i64, ptr %7, align 8
  %24 = getelementptr inbounds double, ptr %22, i64 %23
  ret ptr %24
}

; Function Attrs: mustprogress uwtable
define linkonce_odr noundef ptr @_ZSt14__copy_move_a2ILb0EPKdPdET1_T0_S4_S3_(ptr noundef %0, ptr noundef %1, ptr noundef %2) #2 comdat {
  %4 = alloca ptr, align 8
  %5 = alloca ptr, align 8
  %6 = alloca ptr, align 8
  store ptr %0, ptr %4, align 8
  store ptr %1, ptr %5, align 8
  store ptr %2, ptr %6, align 8
  %7 = load ptr, ptr %4, align 8
  %8 = load ptr, ptr %5, align 8
  %9 = load ptr, ptr %6, align 8
  %10 = call noundef ptr @_ZNSt11__copy_moveILb0ELb1ESt26random_access_iterator_tagE8__copy_mIdEEPT_PKS3_S6_S4_(ptr noundef %7, ptr noundef %8, ptr noundef %9)
  ret ptr %10
}

; Function Attrs: mustprogress nounwind uwtable
define linkonce_odr noundef ptr @_ZSt12__niter_wrapIPdET_RKS1_S1_(ptr noundef nonnull align 8 dereferenceable(8) %0, ptr noundef %1) #1 comdat {
  %3 = alloca ptr, align 8
  %4 = alloca ptr, align 8
  store ptr %0, ptr %3, align 8
  store ptr %1, ptr %4, align 8
  %5 = load ptr, ptr %4, align 8
  ret ptr %5
}

; Function Attrs: mustprogress uwtable
define linkonce_odr noundef ptr @_ZSt14__copy_move_a1ILb0EPKdPdET1_T0_S4_S3_(ptr noundef %0, ptr noundef %1, ptr noundef %2) #2 comdat {
  %4 = alloca ptr, align 8
  %5 = alloca ptr, align 8
  %6 = alloca ptr, align 8
  store ptr %0, ptr %4, align 8
  store ptr %1, ptr %5, align 8
  store ptr %2, ptr %6, align 8
  %7 = load ptr, ptr %4, align 8
  %8 = load ptr, ptr %5, align 8
  %9 = load ptr, ptr %6, align 8
  %10 = call noundef ptr @_ZSt14__copy_move_a2ILb0EPKdPdET1_T0_S4_S3_(ptr noundef %7, ptr noundef %8, ptr noundef %9)
  ret ptr %10
}

; Function Attrs: mustprogress nounwind uwtable
define linkonce_odr noundef ptr @_ZSt12__niter_baseIPdET_S1_(ptr noundef %0) #1 comdat {
  %2 = alloca ptr, align 8
  store ptr %0, ptr %2, align 8
  %3 = load ptr, ptr %2, align 8
  ret ptr %3
}

; Function Attrs: mustprogress nounwind uwtable
define linkonce_odr noundef ptr @_ZSt12__niter_baseIPKdET_S2_(ptr noundef %0) #1 comdat {
  %2 = alloca ptr, align 8
  store ptr %0, ptr %2, align 8
  %3 = load ptr, ptr %2, align 8
  ret ptr %3
}

; Function Attrs: mustprogress uwtable
define linkonce_odr noundef ptr @_ZSt13__copy_move_aILb0EPKdPdET1_T0_S4_S3_(ptr noundef %0, ptr noundef %1, ptr noundef %2) #2 comdat {
  %4 = alloca ptr, align 8
  %5 = alloca ptr, align 8
  %6 = alloca ptr, align 8
  store ptr %0, ptr %4, align 8
  store ptr %1, ptr %5, align 8
  store ptr %2, ptr %6, align 8
  %7 = load ptr, ptr %4, align 8
  %8 = call noundef ptr @_ZSt12__niter_baseIPKdET_S2_(ptr noundef %7) #13
  %9 = load ptr, ptr %5, align 8
  %10 = call noundef ptr @_ZSt12__niter_baseIPKdET_S2_(ptr noundef %9) #13
  %11 = load ptr, ptr %6, align 8
  %12 = call noundef ptr @_ZSt12__niter_baseIPdET_S1_(ptr noundef %11) #13
  %13 = call noundef ptr @_ZSt14__copy_move_a1ILb0EPKdPdET1_T0_S4_S3_(ptr noundef %8, ptr noundef %10, ptr noundef %12)
  %14 = call noundef ptr @_ZSt12__niter_wrapIPdET_RKS1_S1_(ptr noundef nonnull align 8 dereferenceable(8) %6, ptr noundef %13)
  ret ptr %14
}

; Function Attrs: mustprogress nounwind uwtable
define linkonce_odr noundef ptr @_ZSt12__miter_baseIPKdET_S2_(ptr noundef %0) #1 comdat {
  %2 = alloca ptr, align 8
  store ptr %0, ptr %2, align 8
  %3 = load ptr, ptr %2, align 8
  ret ptr %3
}

; Function Attrs: mustprogress uwtable
define linkonce_odr noundef ptr @_ZSt4copyIPKdPdET0_T_S4_S3_(ptr noundef %0, ptr noundef %1, ptr noundef %2) #2 comdat {
  %4 = alloca ptr, align 8
  %5 = alloca ptr, align 8
  %6 = alloca ptr, align 8
  store ptr %0, ptr %4, align 8
  store ptr %1, ptr %5, align 8
  store ptr %2, ptr %6, align 8
  %7 = load ptr, ptr %4, align 8
  %8 = call noundef ptr @_ZSt12__miter_baseIPKdET_S2_(ptr noundef %7)
  %9 = load ptr, ptr %5, align 8
  %10 = call noundef ptr @_ZSt12__miter_baseIPKdET_S2_(ptr noundef %9)
  %11 = load ptr, ptr %6, align 8
  %12 = call noundef ptr @_ZSt13__copy_move_aILb0EPKdPdET1_T0_S4_S3_(ptr noundef %8, ptr noundef %10, ptr noundef %11)
  ret ptr %12
}

; Function Attrs: mustprogress nounwind uwtable
define linkonce_odr noundef double @_ZSt3absd(double noundef %0) #1 comdat {
  %2 = alloca double, align 8
  store double %0, ptr %2, align 8
  %3 = load double, ptr %2, align 8
  %4 = call double @llvm.fabs.f64(double %3)
  ret double %4
}

; Function Attrs: mustprogress uwtable
define linkonce_odr noundef ptr @_ZSt8__copy_nIPKdiPdET1_T_T0_S3_St26random_access_iterator_tag(ptr noundef %0, i32 noundef %1, ptr noundef %2) #2 comdat {
  %4 = alloca ptr, align 8
  %5 = alloca i32, align 4
  %6 = alloca ptr, align 8
  store ptr %0, ptr %4, align 8
  store i32 %1, ptr %5, align 4
  store ptr %2, ptr %6, align 8
  %7 = load ptr, ptr %4, align 8
  %8 = load ptr, ptr %4, align 8
  %9 = load i32, ptr %5, align 4
  %10 = sext i32 %9 to i64
  %11 = getelementptr inbounds double, ptr %8, i64 %10
  %12 = load ptr, ptr %6, align 8
  %13 = call noundef ptr @_ZSt4copyIPKdPdET0_T_S4_S3_(ptr noundef %7, ptr noundef %11, ptr noundef %12)
  ret ptr %13
}

; Function Attrs: mustprogress nounwind uwtable
define linkonce_odr void @_ZSt19__iterator_categoryIPKdENSt15iterator_traitsIT_E17iterator_categoryERKS3_(ptr noundef nonnull align 8 dereferenceable(8) %0) #1 comdat {
  %2 = alloca ptr, align 8
  store ptr %0, ptr %2, align 8
  ret void
}

; Function Attrs: mustprogress nounwind uwtable
define linkonce_odr noundef i32 @_ZSt17__size_to_integeri(i32 noundef %0) #1 comdat {
  %2 = alloca i32, align 4
  store i32 %0, ptr %2, align 4
  %3 = load i32, ptr %2, align 4
  ret i32 %3
}

; Function Attrs: mustprogress uwtable
define linkonce_odr noundef double @_ZSt8__hypot3IdET_S0_S0_S0_(double noundef %0, double noundef %1, double noundef %2) #2 comdat {
  %4 = alloca double, align 8
  %5 = alloca double, align 8
  %6 = alloca double, align 8
  %7 = alloca double, align 8
  %8 = alloca double, align 8
  store double %0, ptr %5, align 8
  store double %1, ptr %6, align 8
  store double %2, ptr %7, align 8
  %9 = load double, ptr %5, align 8
  %10 = call noundef double @_ZSt3absd(double noundef %9)
  store double %10, ptr %5, align 8
  %11 = load double, ptr %6, align 8
  %12 = call noundef double @_ZSt3absd(double noundef %11)
  store double %12, ptr %6, align 8
  %13 = load double, ptr %7, align 8
  %14 = call noundef double @_ZSt3absd(double noundef %13)
  store double %14, ptr %7, align 8
  %15 = load double, ptr %5, align 8
  %16 = load double, ptr %6, align 8
  %17 = fcmp olt double %15, %16
  br i1 %17, label %18, label %28

18:                                               ; preds = %3
  %19 = load double, ptr %6, align 8
  %20 = load double, ptr %7, align 8
  %21 = fcmp olt double %19, %20
  br i1 %21, label %22, label %24

22:                                               ; preds = %18
  %23 = load double, ptr %7, align 8
  br label %26

24:                                               ; preds = %18
  %25 = load double, ptr %6, align 8
  br label %26

26:                                               ; preds = %24, %22
  %27 = phi double [ %23, %22 ], [ %25, %24 ]
  br label %38

28:                                               ; preds = %3
  %29 = load double, ptr %5, align 8
  %30 = load double, ptr %7, align 8
  %31 = fcmp olt double %29, %30
  br i1 %31, label %32, label %34

32:                                               ; preds = %28
  %33 = load double, ptr %7, align 8
  br label %36

34:                                               ; preds = %28
  %35 = load double, ptr %5, align 8
  br label %36

36:                                               ; preds = %34, %32
  %37 = phi double [ %33, %32 ], [ %35, %34 ]
  br label %38

38:                                               ; preds = %36, %26
  %39 = phi double [ %27, %26 ], [ %37, %36 ]
  store double %39, ptr %8, align 8
  %40 = load double, ptr %8, align 8
  %41 = fcmp une double %40, 0.000000e+00
  br i1 %41, label %42, label %67

42:                                               ; preds = %38
  %43 = load double, ptr %8, align 8
  %44 = load double, ptr %5, align 8
  %45 = load double, ptr %8, align 8
  %46 = fdiv double %44, %45
  %47 = load double, ptr %5, align 8
  %48 = load double, ptr %8, align 8
  %49 = fdiv double %47, %48
  %50 = load double, ptr %6, align 8
  %51 = load double, ptr %8, align 8
  %52 = fdiv double %50, %51
  %53 = load double, ptr %6, align 8
  %54 = load double, ptr %8, align 8
  %55 = fdiv double %53, %54
  %56 = fmul double %52, %55
  %57 = call double @llvm.fmuladd.f64(double %46, double %49, double %56)
  %58 = load double, ptr %7, align 8
  %59 = load double, ptr %8, align 8
  %60 = fdiv double %58, %59
  %61 = load double, ptr %7, align 8
  %62 = load double, ptr %8, align 8
  %63 = fdiv double %61, %62
  %64 = call double @llvm.fmuladd.f64(double %60, double %63, double %57)
  %65 = call double @sqrt(double noundef %64) #13
  %66 = fmul double %43, %65
  store double %66, ptr %4, align 8
  br label %68

67:                                               ; preds = %38
  store double 0.000000e+00, ptr %4, align 8
  br label %68

68:                                               ; preds = %67, %42
  %69 = load double, ptr %4, align 8
  ret double %69
}

; Function Attrs: mustprogress uwtable
define linkonce_odr noundef ptr @_ZSt6copy_nIPKdiPdET1_T_T0_S3_(ptr noundef %0, i32 noundef %1, ptr noundef %2) #2 comdat {
  %4 = alloca ptr, align 8
  %5 = alloca ptr, align 8
  %6 = alloca i32, align 4
  %7 = alloca ptr, align 8
  %8 = alloca i32, align 4
  store ptr %0, ptr %5, align 8
  store i32 %1, ptr %6, align 4
  store ptr %2, ptr %7, align 8
  %9 = load i32, ptr %6, align 4
  %10 = call noundef i32 @_ZSt17__size_to_integeri(i32 noundef %9)
  store i32 %10, ptr %8, align 4
  %11 = load i32, ptr %8, align 4
  %12 = icmp sle i32 %11, 0
  br i1 %12, label %13, label %15

13:                                               ; preds = %3
  %14 = load ptr, ptr %7, align 8
  store ptr %14, ptr %4, align 8
  br label %20

15:                                               ; preds = %3
  %16 = load ptr, ptr %5, align 8
  %17 = load i32, ptr %8, align 4
  %18 = load ptr, ptr %7, align 8
  call void @_ZSt19__iterator_categoryIPKdENSt15iterator_traitsIT_E17iterator_categoryERKS3_(ptr noundef nonnull align 8 dereferenceable(8) %5)
  %19 = call noundef ptr @_ZSt8__copy_nIPKdiPdET1_T_T0_S3_St26random_access_iterator_tag(ptr noundef %16, i32 noundef %17, ptr noundef %18)
  store ptr %19, ptr %4, align 8
  br label %20

20:                                               ; preds = %15, %13
  %21 = load ptr, ptr %4, align 8
  ret ptr %21
}

; Function Attrs: mustprogress nounwind uwtable
define linkonce_odr noundef i32 @_ZSt10fpclassifyd(double noundef %0) #1 comdat {
  %2 = alloca double, align 8
  store double %0, ptr %2, align 8
  %3 = load double, ptr %2, align 8
  %4 = fcmp oeq double %3, 0.000000e+00
  br i1 %4, label %5, label %7

5:                                                ; preds = %12, %9, %7, %1
  %6 = phi i32 [ 2, %1 ], [ 0, %7 ], [ 1, %9 ], [ %14, %12 ]
  ret i32 %6

7:                                                ; preds = %1
  %8 = fcmp uno double %3, %3
  br i1 %8, label %5, label %9

9:                                                ; preds = %7
  %10 = call double @llvm.fabs.f64(double %3) #23
  %11 = fcmp oeq double %10, 0x7FF0000000000000
  br i1 %11, label %5, label %12

12:                                               ; preds = %9
  %13 = fcmp uge double %10, 0x10000000000000
  %14 = select i1 %13, i32 4, i32 3
  br label %5
}

; Function Attrs: mustprogress uwtable
define linkonce_odr noundef double @_ZSt5hypotddd(double noundef %0, double noundef %1, double noundef %2) #2 comdat {
  %4 = alloca double, align 8
  %5 = alloca double, align 8
  %6 = alloca double, align 8
  store double %0, ptr %4, align 8
  store double %1, ptr %5, align 8
  store double %2, ptr %6, align 8
  %7 = load double, ptr %4, align 8
  %8 = load double, ptr %5, align 8
  %9 = load double, ptr %6, align 8
  %10 = call noundef double @_ZSt8__hypot3IdET_S0_S0_S0_(double noundef %7, double noundef %8, double noundef %9)
  ret double %10
}

; Function Attrs: mustprogress uwtable
define internal void @_ZN5ceres12_GLOBAL__N_118QuaternionPlusImplINS0_20CeresQuaternionOrderEEEvPKdS4_Pd(ptr noundef %0, ptr noundef %1, ptr noundef %2) #2 {
  %4 = alloca ptr, align 8
  %5 = alloca ptr, align 8
  %6 = alloca ptr, align 8
  %7 = alloca double, align 8
  %8 = alloca double, align 8
  %9 = alloca [4 x double], align 16
  store ptr %0, ptr %4, align 8
  store ptr %1, ptr %5, align 8
  store ptr %2, ptr %6, align 8
  %10 = load ptr, ptr %5, align 8
  %11 = getelementptr inbounds double, ptr %10, i64 0
  %12 = load double, ptr %11, align 8
  %13 = load ptr, ptr %5, align 8
  %14 = getelementptr inbounds double, ptr %13, i64 1
  %15 = load double, ptr %14, align 8
  %16 = load ptr, ptr %5, align 8
  %17 = getelementptr inbounds double, ptr %16, i64 2
  %18 = load double, ptr %17, align 8
  %19 = call noundef double @_ZSt5hypotddd(double noundef %12, double noundef %15, double noundef %18)
  store double %19, ptr %7, align 8
  %20 = load double, ptr %7, align 8
  %21 = call noundef i32 @_ZSt10fpclassifyd(double noundef %20)
  %22 = icmp eq i32 %21, 2
  br i1 %22, label %23, label %27

23:                                               ; preds = %3
  %24 = load ptr, ptr %4, align 8
  %25 = load ptr, ptr %6, align 8
  %26 = call noundef ptr @_ZSt6copy_nIPKdiPdET1_T_T0_S3_(ptr noundef %24, i32 noundef 4, ptr noundef %25)
  br label %163

27:                                               ; preds = %3
  %28 = load double, ptr %7, align 8
  %29 = call double @sin(double noundef %28) #13
  %30 = load double, ptr %7, align 8
  %31 = fdiv double %29, %30
  store double %31, ptr %8, align 8
  %32 = load double, ptr %7, align 8
  %33 = call double @cos(double noundef %32) #13
  %34 = getelementptr inbounds [4 x double], ptr %9, i64 0, i64 0
  store double %33, ptr %34, align 16
  %35 = load double, ptr %8, align 8
  %36 = load ptr, ptr %5, align 8
  %37 = getelementptr inbounds double, ptr %36, i64 0
  %38 = load double, ptr %37, align 8
  %39 = fmul double %35, %38
  %40 = getelementptr inbounds [4 x double], ptr %9, i64 0, i64 1
  store double %39, ptr %40, align 8
  %41 = load double, ptr %8, align 8
  %42 = load ptr, ptr %5, align 8
  %43 = getelementptr inbounds double, ptr %42, i64 1
  %44 = load double, ptr %43, align 8
  %45 = fmul double %41, %44
  %46 = getelementptr inbounds [4 x double], ptr %9, i64 0, i64 2
  store double %45, ptr %46, align 16
  %47 = load double, ptr %8, align 8
  %48 = load ptr, ptr %5, align 8
  %49 = getelementptr inbounds double, ptr %48, i64 2
  %50 = load double, ptr %49, align 8
  %51 = fmul double %47, %50
  %52 = getelementptr inbounds [4 x double], ptr %9, i64 0, i64 3
  store double %51, ptr %52, align 8
  %53 = getelementptr inbounds [4 x double], ptr %9, i64 0, i64 0
  %54 = load double, ptr %53, align 16
  %55 = load ptr, ptr %4, align 8
  %56 = getelementptr inbounds double, ptr %55, i64 0
  %57 = load double, ptr %56, align 8
  %58 = getelementptr inbounds [4 x double], ptr %9, i64 0, i64 1
  %59 = load double, ptr %58, align 8
  %60 = load ptr, ptr %4, align 8
  %61 = getelementptr inbounds double, ptr %60, i64 1
  %62 = load double, ptr %61, align 8
  %63 = fmul double %59, %62
  %64 = fneg double %63
  %65 = call double @llvm.fmuladd.f64(double %54, double %57, double %64)
  %66 = getelementptr inbounds [4 x double], ptr %9, i64 0, i64 2
  %67 = load double, ptr %66, align 16
  %68 = load ptr, ptr %4, align 8
  %69 = getelementptr inbounds double, ptr %68, i64 2
  %70 = load double, ptr %69, align 8
  %71 = fneg double %67
  %72 = call double @llvm.fmuladd.f64(double %71, double %70, double %65)
  %73 = getelementptr inbounds [4 x double], ptr %9, i64 0, i64 3
  %74 = load double, ptr %73, align 8
  %75 = load ptr, ptr %4, align 8
  %76 = getelementptr inbounds double, ptr %75, i64 3
  %77 = load double, ptr %76, align 8
  %78 = fneg double %74
  %79 = call double @llvm.fmuladd.f64(double %78, double %77, double %72)
  %80 = load ptr, ptr %6, align 8
  %81 = getelementptr inbounds double, ptr %80, i64 0
  store double %79, ptr %81, align 8
  %82 = getelementptr inbounds [4 x double], ptr %9, i64 0, i64 0
  %83 = load double, ptr %82, align 16
  %84 = load ptr, ptr %4, align 8
  %85 = getelementptr inbounds double, ptr %84, i64 1
  %86 = load double, ptr %85, align 8
  %87 = getelementptr inbounds [4 x double], ptr %9, i64 0, i64 1
  %88 = load double, ptr %87, align 8
  %89 = load ptr, ptr %4, align 8
  %90 = getelementptr inbounds double, ptr %89, i64 0
  %91 = load double, ptr %90, align 8
  %92 = fmul double %88, %91
  %93 = call double @llvm.fmuladd.f64(double %83, double %86, double %92)
  %94 = getelementptr inbounds [4 x double], ptr %9, i64 0, i64 2
  %95 = load double, ptr %94, align 16
  %96 = load ptr, ptr %4, align 8
  %97 = getelementptr inbounds double, ptr %96, i64 3
  %98 = load double, ptr %97, align 8
  %99 = call double @llvm.fmuladd.f64(double %95, double %98, double %93)
  %100 = getelementptr inbounds [4 x double], ptr %9, i64 0, i64 3
  %101 = load double, ptr %100, align 8
  %102 = load ptr, ptr %4, align 8
  %103 = getelementptr inbounds double, ptr %102, i64 2
  %104 = load double, ptr %103, align 8
  %105 = fneg double %101
  %106 = call double @llvm.fmuladd.f64(double %105, double %104, double %99)
  %107 = load ptr, ptr %6, align 8
  %108 = getelementptr inbounds double, ptr %107, i64 1
  store double %106, ptr %108, align 8
  %109 = getelementptr inbounds [4 x double], ptr %9, i64 0, i64 0
  %110 = load double, ptr %109, align 16
  %111 = load ptr, ptr %4, align 8
  %112 = getelementptr inbounds double, ptr %111, i64 2
  %113 = load double, ptr %112, align 8
  %114 = getelementptr inbounds [4 x double], ptr %9, i64 0, i64 1
  %115 = load double, ptr %114, align 8
  %116 = load ptr, ptr %4, align 8
  %117 = getelementptr inbounds double, ptr %116, i64 3
  %118 = load double, ptr %117, align 8
  %119 = fmul double %115, %118
  %120 = fneg double %119
  %121 = call double @llvm.fmuladd.f64(double %110, double %113, double %120)
  %122 = getelementptr inbounds [4 x double], ptr %9, i64 0, i64 2
  %123 = load double, ptr %122, align 16
  %124 = load ptr, ptr %4, align 8
  %125 = getelementptr inbounds double, ptr %124, i64 0
  %126 = load double, ptr %125, align 8
  %127 = call double @llvm.fmuladd.f64(double %123, double %126, double %121)
  %128 = getelementptr inbounds [4 x double], ptr %9, i64 0, i64 3
  %129 = load double, ptr %128, align 8
  %130 = load ptr, ptr %4, align 8
  %131 = getelementptr inbounds double, ptr %130, i64 1
  %132 = load double, ptr %131, align 8
  %133 = call double @llvm.fmuladd.f64(double %129, double %132, double %127)
  %134 = load ptr, ptr %6, align 8
  %135 = getelementptr inbounds double, ptr %134, i64 2
  store double %133, ptr %135, align 8
  %136 = getelementptr inbounds [4 x double], ptr %9, i64 0, i64 0
  %137 = load double, ptr %136, align 16
  %138 = load ptr, ptr %4, align 8
  %139 = getelementptr inbounds double, ptr %138, i64 3
  %140 = load double, ptr %139, align 8
  %141 = getelementptr inbounds [4 x double], ptr %9, i64 0, i64 1
  %142 = load double, ptr %141, align 8
  %143 = load ptr, ptr %4, align 8
  %144 = getelementptr inbounds double, ptr %143, i64 2
  %145 = load double, ptr %144, align 8
  %146 = fmul double %142, %145
  %147 = call double @llvm.fmuladd.f64(double %137, double %140, double %146)
  %148 = getelementptr inbounds [4 x double], ptr %9, i64 0, i64 2
  %149 = load double, ptr %148, align 16
  %150 = load ptr, ptr %4, align 8
  %151 = getelementptr inbounds double, ptr %150, i64 1
  %152 = load double, ptr %151, align 8
  %153 = fneg double %149
  %154 = call double @llvm.fmuladd.f64(double %153, double %152, double %147)
  %155 = getelementptr inbounds [4 x double], ptr %9, i64 0, i64 3
  %156 = load double, ptr %155, align 8
  %157 = load ptr, ptr %4, align 8
  %158 = getelementptr inbounds double, ptr %157, i64 0
  %159 = load double, ptr %158, align 8
  %160 = call double @llvm.fmuladd.f64(double %156, double %159, double %154)
  %161 = load ptr, ptr %6, align 8
  %162 = getelementptr inbounds double, ptr %161, i64 3
  store double %160, ptr %162, align 8
  br label %163

163:                                              ; preds = %27, %23
  ret void
}

; Function Attrs: mustprogress uwtable
define hidden noundef zeroext i1 @_ZNK5ceres18QuaternionManifold4PlusEPKdS2_Pd(ptr noundef nonnull align 8 dereferenceable(8) %0, ptr noundef %1, ptr noundef %2, ptr noundef %3) unnamed_addr #2 align 2 {
  %5 = alloca ptr, align 8
  %6 = alloca ptr, align 8
  %7 = alloca ptr, align 8
  %8 = alloca ptr, align 8
  store ptr %0, ptr %5, align 8
  store ptr %1, ptr %6, align 8
  store ptr %2, ptr %7, align 8
  store ptr %3, ptr %8, align 8
  %9 = load ptr, ptr %6, align 8
  %10 = load ptr, ptr %7, align 8
  %11 = load ptr, ptr %8, align 8
  call void @_ZN5ceres12_GLOBAL__N_118QuaternionPlusImplINS0_20CeresQuaternionOrderEEEvPKdS4_Pd(ptr noundef %9, ptr noundef %10, ptr noundef %11)
  ret i1 true
}