; Function Attrs: mustprogress nofree nounwind willreturn memory(write, argmem: readwrite) uwtable
define hidden noundef zeroext i1 @_ZNK5ceres18QuaternionManifold4PlusEPKdS2_Pd(ptr nocapture nonnull readnone align 8 %0, ptr nocapture noundef readonly %1, ptr nocapture noundef readonly %2, ptr nocapture noundef writeonly %3) unnamed_addr #10 align 2 {
  %5 = getelementptr inbounds i8, ptr %2, i64 8
  %6 = getelementptr inbounds i8, ptr %2, i64 16
  %7 = load double, ptr %6, align 8
  %8 = load <2 x double>, ptr %2, align 8
  %9 = tail call <2 x double> @llvm.fabs.v2f64(<2 x double> %8)
  %10 = tail call noundef double @llvm.fabs.f64(double %7)
  %11 = extractelement <2 x double> %9, i64 0
  %12 = extractelement <2 x double> %9, i64 1
  %13 = fcmp olt double %11, %12
  %..i.i.i = select i1 %13, double %12, double %11
  %14 = fcmp olt double %..i.i.i, %10
  %15 = select i1 %14, double %10, double %..i.i.i
  %16 = fcmp une double %15, 0.000000e+00
  br i1 %16, label %_ZSt5hypotddd.exit.i, label %_ZSt10fpclassifyd.exit.i

_ZSt5hypotddd.exit.i:                             ; preds = %4
  %17 = fdiv double %11, %15
  %18 = fdiv double %12, %15
  %19 = fmul double %18, %18
  %20 = tail call double @llvm.fmuladd.f64(double %17, double %17, double %19)
  %21 = fdiv double %10, %15
  %22 = tail call double @llvm.fmuladd.f64(double %21, double %21, double %20)
  %sqrt.i.i.i = tail call double @llvm.sqrt.f64(double %22)
  %23 = fmul double %15, %sqrt.i.i.i
  %24 = fcmp oeq double %23, 0.000000e+00
  br i1 %24, label %_ZSt10fpclassifyd.exit.i, label %25

25:                                               ; preds = %_ZSt5hypotddd.exit.i
  %26 = tail call double @sin(double noundef %23) #29
  %27 = fdiv double %26, %23
  %28 = tail call double @cos(double noundef %23) #29
  %29 = load double, ptr %2, align 8
  %30 = fmul double %27, %29
  %31 = load double, ptr %5, align 8
  %32 = fmul double %27, %31
  %33 = load double, ptr %6, align 8
  %34 = fmul double %27, %33
  %35 = load double, ptr %1, align 8
  %36 = getelementptr inbounds i8, ptr %1, i64 8
  %37 = load double, ptr %36, align 8
  %38 = fneg double %30
  %39 = fmul double %37, %38
  %40 = tail call double @llvm.fmuladd.f64(double %28, double %35, double %39)
  %41 = getelementptr inbounds i8, ptr %1, i64 16
  %42 = load double, ptr %41, align 8
  %43 = fneg double %32
  %44 = tail call double @llvm.fmuladd.f64(double %43, double %42, double %40)
  %45 = getelementptr inbounds i8, ptr %1, i64 24
  %46 = load double, ptr %45, align 8
  %47 = fneg double %34
  %48 = tail call double @llvm.fmuladd.f64(double %47, double %46, double %44)
  store double %48, ptr %3, align 8
  %49 = load double, ptr %36, align 8
  %50 = load double, ptr %1, align 8
  %51 = fmul double %30, %50
  %52 = tail call double @llvm.fmuladd.f64(double %28, double %49, double %51)
  %53 = load double, ptr %45, align 8
  %54 = tail call double @llvm.fmuladd.f64(double %32, double %53, double %52)
  %55 = load double, ptr %41, align 8
  %56 = tail call double @llvm.fmuladd.f64(double %47, double %55, double %54)
  %57 = getelementptr inbounds i8, ptr %3, i64 8
  store double %56, ptr %57, align 8
  %58 = load double, ptr %41, align 8
  %59 = load double, ptr %45, align 8
  %60 = fmul double %59, %38
  %61 = tail call double @llvm.fmuladd.f64(double %28, double %58, double %60)
  %62 = load double, ptr %1, align 8
  %63 = tail call double @llvm.fmuladd.f64(double %32, double %62, double %61)
  %64 = load double, ptr %36, align 8
  %65 = tail call double @llvm.fmuladd.f64(double %34, double %64, double %63)
  %66 = getelementptr inbounds i8, ptr %3, i64 16
  store double %65, ptr %66, align 8
  %67 = load double, ptr %45, align 8
  %68 = load double, ptr %41, align 8
  %69 = fmul double %30, %68
  %70 = tail call double @llvm.fmuladd.f64(double %28, double %67, double %69)
  %71 = load double, ptr %36, align 8
  %72 = tail call double @llvm.fmuladd.f64(double %43, double %71, double %70)
  %73 = load double, ptr %1, align 8
  %74 = tail call double @llvm.fmuladd.f64(double %34, double %73, double %72)
  %75 = getelementptr inbounds i8, ptr %3, i64 24
  store double %74, ptr %75, align 8
  br label %_ZN5ceres12_GLOBAL__N_118QuaternionPlusImplINS0_20CeresQuaternionOrderEEEvPKdS4_Pd.exit

_ZSt10fpclassifyd.exit.i:                         ; preds = %_ZSt5hypotddd.exit.i, %4
  tail call void @llvm.memmove.p0.p0.i64(ptr noundef nonnull align 8 dereferenceable(32) %3, ptr noundef nonnull align 8 dereferenceable(32) %1, i64 32, i1 false)
  br label %_ZN5ceres12_GLOBAL__N_118QuaternionPlusImplINS0_20CeresQuaternionOrderEEEvPKdS4_Pd.exit

_ZN5ceres12_GLOBAL__N_118QuaternionPlusImplINS0_20CeresQuaternionOrderEEEvPKdS4_Pd.exit: ; preds = %25, %_ZSt10fpclassifyd.exit.i
  ret i1 true
}